; ModuleID = '21/903.c'
source_filename = "21/903.c"
target datalayout = "e-m:e-p270:32:32-p271:32:32-p272:64:64-i64:64-f80:128-n8:16:32:64-S128"
target triple = "x86_64-pc-linux-gnu"

@.str = private unnamed_addr constant [3 x i8] c"%d\00", align 1
@.str.1 = private unnamed_addr constant [2 x i8] c",\00", align 1

; Function Attrs: noinline nounwind uwtable
define dso_local i32 @main() #0 {
  %1 = alloca i32, align 4
  %2 = alloca i32, align 4
  %3 = alloca i32, align 4
  %4 = alloca i32, align 4
  %5 = alloca i32, align 4
  %6 = alloca float, align 4
  %7 = alloca float, align 4
  %8 = alloca float, align 4
  %9 = alloca [391 x i32], align 16
  store i32 0, i32* %1, align 4
  store i32 0, i32* %4, align 4
  store float 0.000000e+00, float* %7, align 4
  %10 = call i32 (i8*, ...) @__isoc99_scanf(i8* getelementptr inbounds ([3 x i8], [3 x i8]* @.str, i64 0, i64 0), i32* %3)
  store i32 0, i32* %2, align 4
  br label %11

11:                                               ; preds = %27, %0
  %12 = load i32, i32* %2, align 4
  %13 = load i32, i32* %3, align 4
  %14 = icmp slt i32 %12, %13
  br i1 %14, label %15, label %30

15:                                               ; preds = %11
  %16 = load i32, i32* %2, align 4
  %17 = sext i32 %16 to i64
  %18 = getelementptr inbounds [391 x i32], [391 x i32]* %9, i64 0, i64 %17
  %19 = call i32 (i8*, ...) @__isoc99_scanf(i8* getelementptr inbounds ([3 x i8], [3 x i8]* @.str, i64 0, i64 0), i32* %18)
  %20 = load i32, i32* %2, align 4
  %21 = sext i32 %20 to i64
  %22 = getelementptr inbounds [391 x i32], [391 x i32]* %9, i64 0, i64 %21
  %23 = load i32, i32* %22, align 4
  %24 = sitofp i32 %23 to float
  %25 = load float, float* %7, align 4
  %26 = fadd float %25, %24
  store float %26, float* %7, align 4
  br label %27

27:                                               ; preds = %15
  %28 = load i32, i32* %2, align 4
  %29 = add nsw i32 %28, 1
  store i32 %29, i32* %2, align 4
  br label %11

30:                                               ; preds = %11
  %31 = load float, float* %7, align 4
  %32 = load i32, i32* %3, align 4
  %33 = sitofp i32 %32 to float
  %34 = fdiv float %31, %33
  store float %34, float* %6, align 4
  store i32 0, i32* %2, align 4
  br label %35

35:                                               ; preds = %78, %30
  %36 = load i32, i32* %2, align 4
  %37 = load i32, i32* %3, align 4
  %38 = icmp slt i32 %36, %37
  br i1 %38, label %39, label %81

39:                                               ; preds = %35
  %40 = load i32, i32* %2, align 4
  store i32 %40, i32* %5, align 4
  br label %41

41:                                               ; preds = %74, %39
  %42 = load i32, i32* %5, align 4
  %43 = load i32, i32* %3, align 4
  %44 = icmp slt i32 %42, %43
  br i1 %44, label %45, label %77

45:                                               ; preds = %41
  %46 = load i32, i32* %5, align 4
  %47 = sext i32 %46 to i64
  %48 = getelementptr inbounds [391 x i32], [391 x i32]* %9, i64 0, i64 %47
  %49 = load i32, i32* %48, align 4
  %50 = load i32, i32* %2, align 4
  %51 = sext i32 %50 to i64
  %52 = getelementptr inbounds [391 x i32], [391 x i32]* %9, i64 0, i64 %51
  %53 = load i32, i32* %52, align 4
  %54 = icmp slt i32 %49, %53
  br i1 %54, label %55, label %73

55:                                               ; preds = %45
  %56 = load i32, i32* %5, align 4
  %57 = sext i32 %56 to i64
  %58 = getelementptr inbounds [391 x i32], [391 x i32]* %9, i64 0, i64 %57
  %59 = load i32, i32* %58, align 4
  %60 = sitofp i32 %59 to float
  store float %60, float* %8, align 4
  %61 = load i32, i32* %2, align 4
  %62 = sext i32 %61 to i64
  %63 = getelementptr inbounds [391 x i32], [391 x i32]* %9, i64 0, i64 %62
  %64 = load i32, i32* %63, align 4
  %65 = load i32, i32* %5, align 4
  %66 = sext i32 %65 to i64
  %67 = getelementptr inbounds [391 x i32], [391 x i32]* %9, i64 0, i64 %66
  store i32 %64, i32* %67, align 4
  %68 = load float, float* %8, align 4
  %69 = fptosi float %68 to i32
  %70 = load i32, i32* %2, align 4
  %71 = sext i32 %70 to i64
  %72 = getelementptr inbounds [391 x i32], [391 x i32]* %9, i64 0, i64 %71
  store i32 %69, i32* %72, align 4
  br label %73

73:                                               ; preds = %55, %45
  br label %74

74:                                               ; preds = %73
  %75 = load i32, i32* %5, align 4
  %76 = add nsw i32 %75, 1
  store i32 %76, i32* %5, align 4
  br label %41

77:                                               ; preds = %41
  br label %78

78:                                               ; preds = %77
  %79 = load i32, i32* %2, align 4
  %80 = add nsw i32 %79, 1
  store i32 %80, i32* %2, align 4
  br label %35

81:                                               ; preds = %35
  %82 = getelementptr inbounds [391 x i32], [391 x i32]* %9, i64 0, i64 0
  %83 = load i32, i32* %82, align 16
  %84 = sitofp i32 %83 to float
  %85 = load float, float* %6, align 4
  %86 = fsub float %84, %85
  %87 = fpext float %86 to double
  %88 = call double @llvm.fabs.f64(double %87)
  %89 = fptrunc double %88 to float
  store float %89, float* %8, align 4
  %90 = load float, float* %8, align 4
  %91 = load i32, i32* %3, align 4
  %92 = sub nsw i32 %91, 1
  %93 = sext i32 %92 to i64
  %94 = getelementptr inbounds [391 x i32], [391 x i32]* %9, i64 0, i64 %93
  %95 = load i32, i32* %94, align 4
  %96 = sitofp i32 %95 to float
  %97 = load float, float* %6, align 4
  %98 = fsub float %96, %97
  %99 = fcmp olt float %90, %98
  br i1 %99, label %100, label %109

100:                                              ; preds = %81
  %101 = load i32, i32* %3, align 4
  %102 = sub nsw i32 %101, 1
  %103 = sext i32 %102 to i64
  %104 = getelementptr inbounds [391 x i32], [391 x i32]* %9, i64 0, i64 %103
  %105 = load i32, i32* %104, align 4
  %106 = sitofp i32 %105 to float
  %107 = load float, float* %6, align 4
  %108 = fsub float %106, %107
  store float %108, float* %8, align 4
  br label %109

109:                                              ; preds = %100, %81
  store i32 0, i32* %2, align 4
  br label %110

110:                                              ; preds = %156, %109
  %111 = load i32, i32* %2, align 4
  %112 = load i32, i32* %3, align 4
  %113 = icmp slt i32 %111, %112
  br i1 %113, label %114, label %159

114:                                              ; preds = %110
  %115 = load i32, i32* %2, align 4
  %116 = sext i32 %115 to i64
  %117 = getelementptr inbounds [391 x i32], [391 x i32]* %9, i64 0, i64 %116
  %118 = load i32, i32* %117, align 4
  %119 = sitofp i32 %118 to float
  %120 = load float, float* %6, align 4
  %121 = fsub float %119, %120
  %122 = fpext float %121 to double
  %123 = call double @llvm.fabs.f64(double %122)
  %124 = load float, float* %8, align 4
  %125 = fpext float %124 to double
  %126 = fsub double %123, %125
  %127 = fcmp olt double %126, 1.000000e-01
  br i1 %127, label %128, label %155

128:                                              ; preds = %114
  %129 = load i32, i32* %2, align 4
  %130 = sext i32 %129 to i64
  %131 = getelementptr inbounds [391 x i32], [391 x i32]* %9, i64 0, i64 %130
  %132 = load i32, i32* %131, align 4
  %133 = sitofp i32 %132 to float
  %134 = load float, float* %6, align 4
  %135 = fsub float %133, %134
  %136 = fpext float %135 to double
  %137 = call double @llvm.fabs.f64(double %136)
  %138 = load float, float* %8, align 4
  %139 = fpext float %138 to double
  %140 = fsub double %137, %139
  %141 = fcmp ogt double %140, -1.000000e-01
  br i1 %141, label %142, label %155

142:                                              ; preds = %128
  %143 = load i32, i32* %4, align 4
  %144 = icmp ne i32 %143, 0
  br i1 %144, label %145, label %147

145:                                              ; preds = %142
  %146 = call i32 (i8*, ...) @printf(i8* getelementptr inbounds ([2 x i8], [2 x i8]* @.str.1, i64 0, i64 0))
  br label %147

147:                                              ; preds = %145, %142
  %148 = load i32, i32* %2, align 4
  %149 = sext i32 %148 to i64
  %150 = getelementptr inbounds [391 x i32], [391 x i32]* %9, i64 0, i64 %149
  %151 = load i32, i32* %150, align 4
  %152 = call i32 (i8*, ...) @printf(i8* getelementptr inbounds ([3 x i8], [3 x i8]* @.str, i64 0, i64 0), i32 %151)
  %153 = load i32, i32* %4, align 4
  %154 = add nsw i32 %153, 1
  store i32 %154, i32* %4, align 4
  br label %155

155:                                              ; preds = %147, %128, %114
  br label %156

156:                                              ; preds = %155
  %157 = load i32, i32* %2, align 4
  %158 = add nsw i32 %157, 1
  store i32 %158, i32* %2, align 4
  br label %110

159:                                              ; preds = %110
  ret i32 0
}

declare dso_local i32 @__isoc99_scanf(i8*, ...) #1

; Function Attrs: nounwind readnone speculatable willreturn
declare double @llvm.fabs.f64(double) #2

declare dso_local i32 @printf(i8*, ...) #1


!llvm.module.flags = !{!0}
!llvm.ident = !{!1}

!0 = !{i32 1, !"wchar_size", i32 4}
!1 = !{!"clang version 10.0.0-4ubuntu1 "}
